target datalayout = "e-m:e-p270:32:32-p271:32:32-p272:64:64-i64:64-i128:128-f80:128-n8:16:32:64-S128"
target triple = "x86_64-unknown-linux-gnu"

%"class.node::JSONWriter" = type <{ ptr, i8, [3 x i8], i32, i32, [4 x i8] }>

@.str.95 = private unnamed_addr constant [8 x i8] c"message\00", align 1
@.str.96 = private unnamed_addr constant [6 x i8] c"stack\00", align 1
@.str.98 = private unnamed_addr constant [16 x i8] c"errorProperties\00", align 1
@.str.137 = private unnamed_addr constant [10 x i8] c"No stack.\00", align 1
@.str.138 = private unnamed_addr constant [13 x i8] c"Unavailable.\00", align 1

; Function Attrs: mustprogress nounwind uwtable
define linkonce_odr dso_local void @_ZN4node10JSONWriter7advanceEv(ptr noundef nonnull align 8 dereferenceable(20) %this) #4 comdat align 2 {
entry:
  %this.addr = alloca ptr, align 8
  %i = alloca i32, align 4
  store ptr %this, ptr %this.addr, align 8
  %this1 = load ptr, ptr %this.addr, align 8
  %compact_ = getelementptr inbounds %"class.node::JSONWriter", ptr %this1, i32 0, i32 1
  %0 = load i8, ptr %compact_, align 8
  %tobool = trunc i8 %0 to i1
  br i1 %tobool, label %if.then, label %if.end

if.then:                                          ; preds = %entry
  br label %for.end

if.end:                                           ; preds = %entry
  store i32 0, ptr %i, align 4
  br label %for.cond

for.cond:                                         ; preds = %for.inc, %if.end
  %1 = load i32, ptr %i, align 4
  %indent_ = getelementptr inbounds %"class.node::JSONWriter", ptr %this1, i32 0, i32 3
  %2 = load i32, ptr %indent_, align 4
  %cmp = icmp slt i32 %1, %2
  br i1 %cmp, label %for.body, label %for.end

for.body:                                         ; preds = %for.cond
  %out_ = getelementptr inbounds %"class.node::JSONWriter", ptr %this1, i32 0, i32 0
  %3 = load ptr, ptr %out_, align 8
  %call = call noundef nonnull align 8 dereferenceable(8) ptr @_ZStlsISt11char_traitsIcEERSt13basic_ostreamIcT_ES5_c(ptr noundef nonnull align 8 dereferenceable(8) %3, i8 noundef signext 32)
  br label %for.inc

for.inc:                                          ; preds = %for.body
  %4 = load i32, ptr %i, align 4
  %inc = add nsw i32 %4, 1
  store i32 %inc, ptr %i, align 4
  br label %for.cond, !llvm.loop !14

for.end:                                          ; preds = %for.cond, %if.then
  ret void
}

; Function Attrs: mustprogress nounwind uwtable
define linkonce_odr dso_local void @_ZN4node10JSONWriter8deindentEv(ptr noundef nonnull align 8 dereferenceable(20) %this) #4 comdat align 2 {
entry:
  %this.addr = alloca ptr, align 8
  store ptr %this, ptr %this.addr, align 8
  %this1 = load ptr, ptr %this.addr, align 8
  %indent_ = getelementptr inbounds %"class.node::JSONWriter", ptr %this1, i32 0, i32 3
  %0 = load i32, ptr %indent_, align 4
  %sub = sub nsw i32 %0, 2
  store i32 %sub, ptr %indent_, align 4
  ret void
}

; Function Attrs: mustprogress nounwind uwtable
define linkonce_odr dso_local void @_ZN4node10JSONWriter14write_new_lineEv(ptr noundef nonnull align 8 dereferenceable(20) %this) #4 comdat align 2 {
entry:
  %this.addr = alloca ptr, align 8
  store ptr %this, ptr %this.addr, align 8
  %this1 = load ptr, ptr %this.addr, align 8
  %compact_ = getelementptr inbounds %"class.node::JSONWriter", ptr %this1, i32 0, i32 1
  %0 = load i8, ptr %compact_, align 8
  %tobool = trunc i8 %0 to i1
  br i1 %tobool, label %if.then, label %if.end

if.then:                                          ; preds = %entry
  br label %return

if.end:                                           ; preds = %entry
  %out_ = getelementptr inbounds %"class.node::JSONWriter", ptr %this1, i32 0, i32 0
  %1 = load ptr, ptr %out_, align 8
  %call = call noundef nonnull align 8 dereferenceable(8) ptr @_ZStlsISt11char_traitsIcEERSt13basic_ostreamIcT_ES5_c(ptr noundef nonnull align 8 dereferenceable(8) %1, i8 noundef signext 10)
  br label %return

return:                                           ; preds = %if.end, %if.then
  ret void
}

; Function Attrs: mustprogress nounwind uwtable
define linkonce_odr dso_local void @_ZN4node10JSONWriter13json_arrayendEv(ptr noundef nonnull align 8 dereferenceable(20) %this) #4 comdat align 2 {
entry:
  %this.addr = alloca ptr, align 8
  store ptr %this, ptr %this.addr, align 8
  %this1 = load ptr, ptr %this.addr, align 8
  call void @_ZN4node10JSONWriter14write_new_lineEv(ptr noundef nonnull align 8 dereferenceable(20) %this1)
  call void @_ZN4node10JSONWriter8deindentEv(ptr noundef nonnull align 8 dereferenceable(20) %this1)
  call void @_ZN4node10JSONWriter7advanceEv(ptr noundef nonnull align 8 dereferenceable(20) %this1)
  %out_ = getelementptr inbounds %"class.node::JSONWriter", ptr %this1, i32 0, i32 0
  %0 = load ptr, ptr %out_, align 8
  %call = call noundef nonnull align 8 dereferenceable(8) ptr @_ZStlsISt11char_traitsIcEERSt13basic_ostreamIcT_ES5_c(ptr noundef nonnull align 8 dereferenceable(8) %0, i8 noundef signext 93)
  %state_ = getelementptr inbounds %"class.node::JSONWriter", ptr %this1, i32 0, i32 4
  store i32 1, ptr %state_, align 8
  ret void
}

; Function Attrs: mustprogress nounwind uwtable
define internal void @_ZN4node6reportL25PrintEmptyJavaScriptStackEPNS_10JSONWriterE(ptr noundef %writer) #4 {
entry:
  %writer.addr = alloca ptr, align 8
  store ptr %writer, ptr %writer.addr, align 8
  %0 = load ptr, ptr %writer.addr, align 8
  call void @_ZN4node10JSONWriter13json_keyvalueIA8_cA10_cEEvRKT_RKT0_(ptr noundef nonnull align 8 dereferenceable(20) %0, ptr noundef nonnull align 1 dereferenceable(8) @.str.95, ptr noundef nonnull align 1 dereferenceable(10) @.str.137)
  %1 = load ptr, ptr %writer.addr, align 8
  call void @_ZN4node10JSONWriter15json_arraystartIPKcEEvT_(ptr noundef nonnull align 8 dereferenceable(20) %1, ptr noundef @.str.96)
  %2 = load ptr, ptr %writer.addr, align 8
  call void @_ZN4node10JSONWriter12json_elementIA13_cEEvRKT_(ptr noundef nonnull align 8 dereferenceable(20) %2, ptr noundef nonnull align 1 dereferenceable(13) @.str.138)
  %3 = load ptr, ptr %writer.addr, align 8
  call void @_ZN4node10JSONWriter13json_arrayendEv(ptr noundef nonnull align 8 dereferenceable(20) %3)
  %4 = load ptr, ptr %writer.addr, align 8
  call void @_ZN4node10JSONWriter16json_objectstartIPKcEEvT_(ptr noundef nonnull align 8 dereferenceable(20) %4, ptr noundef @.str.98)
  %5 = load ptr, ptr %writer.addr, align 8
  call void @_ZN4node10JSONWriter14json_objectendEv(ptr noundef nonnull align 8 dereferenceable(20) %5)
  ret void
}