; Function Attrs: mustprogress nounwind uwtable
define internal fastcc void @_ZN4node6reportL25PrintEmptyJavaScriptStackEPNS_10JSONWriterE(ptr noundef nonnull %writer) unnamed_addr #3 {
entry:
  tail call void @_ZN4node10JSONWriter13json_keyvalueIA8_cA10_cEEvRKT_RKT0_(ptr noundef nonnull align 8 dereferenceable(20) %writer, ptr noundef nonnull align 1 dereferenceable(8) @.str.95, ptr noundef nonnull align 1 dereferenceable(10) @.str.137)
  tail call void @_ZN4node10JSONWriter15json_arraystartIPKcEEvT_(ptr noundef nonnull align 8 dereferenceable(20) %writer, ptr noundef nonnull @.str.96)
  tail call void @_ZN4node10JSONWriter12json_elementIA13_cEEvRKT_(ptr noundef nonnull align 8 dereferenceable(20) %writer, ptr noundef nonnull align 1 dereferenceable(13) @.str.138)
  %compact_.i.i = getelementptr inbounds i8, ptr %writer, i64 8
  %0 = load i8, ptr %compact_.i.i, align 8
  %1 = and i8 %0, 1
  %tobool.not.i.i = icmp eq i8 %1, 0
  br i1 %tobool.not.i.i, label %if.end.i.i, label %_ZN4node10JSONWriter14write_new_lineEv.exit.i

if.end.i.i:                                       ; preds = %entry
  %2 = load ptr, ptr %writer, align 8
  %call.i.i = tail call noundef nonnull align 8 dereferenceable(8) ptr @_ZStlsISt11char_traitsIcEERSt13basic_ostreamIcT_ES5_c(ptr noundef nonnull align 8 dereferenceable(8) %2, i8 noundef signext 10) #24
  %.pre.i = load i8, ptr %compact_.i.i, align 8
  br label %_ZN4node10JSONWriter14write_new_lineEv.exit.i

_ZN4node10JSONWriter14write_new_lineEv.exit.i:    ; preds = %if.end.i.i, %entry
  %3 = phi i8 [ %0, %entry ], [ %.pre.i, %if.end.i.i ]
  %indent_.i.i = getelementptr inbounds i8, ptr %writer, i64 12
  %4 = load i32, ptr %indent_.i.i, align 4
  %sub.i.i = add nsw i32 %4, -2
  store i32 %sub.i.i, ptr %indent_.i.i, align 4
  %5 = and i8 %3, 1
  %tobool.not.i2.i = icmp eq i8 %5, 0
  %cmp2.i.i = icmp sgt i32 %4, 2
  %or.cond.i = select i1 %tobool.not.i2.i, i1 %cmp2.i.i, i1 false
  br i1 %or.cond.i, label %for.body.i.i, label %_ZN4node10JSONWriter13json_arrayendEv.exit

for.body.i.i:                                     ; preds = %_ZN4node10JSONWriter14write_new_lineEv.exit.i, %for.body.i.i
  %i.03.i.i = phi i32 [ %inc.i.i, %for.body.i.i ], [ 0, %_ZN4node10JSONWriter14write_new_lineEv.exit.i ]
  %6 = load ptr, ptr %writer, align 8
  %call.i4.i = tail call noundef nonnull align 8 dereferenceable(8) ptr @_ZStlsISt11char_traitsIcEERSt13basic_ostreamIcT_ES5_c(ptr noundef nonnull align 8 dereferenceable(8) %6, i8 noundef signext 32) #24
  %inc.i.i = add nuw nsw i32 %i.03.i.i, 1
  %7 = load i32, ptr %indent_.i.i, align 4
  %cmp.i.i = icmp slt i32 %inc.i.i, %7
  br i1 %cmp.i.i, label %for.body.i.i, label %_ZN4node10JSONWriter13json_arrayendEv.exit, !llvm.loop !5

_ZN4node10JSONWriter13json_arrayendEv.exit:       ; preds = %for.body.i.i, %_ZN4node10JSONWriter14write_new_lineEv.exit.i
  %8 = load ptr, ptr %writer, align 8
  %call.i = tail call noundef nonnull align 8 dereferenceable(8) ptr @_ZStlsISt11char_traitsIcEERSt13basic_ostreamIcT_ES5_c(ptr noundef nonnull align 8 dereferenceable(8) %8, i8 noundef signext 93) #24
  %state_.i = getelementptr inbounds i8, ptr %writer, i64 16
  store i32 1, ptr %state_.i, align 8
  tail call void @_ZN4node10JSONWriter16json_objectstartIPKcEEvT_(ptr noundef nonnull align 8 dereferenceable(20) %writer, ptr noundef nonnull @.str.98)
  tail call void @_ZN4node10JSONWriter14json_objectendEv(ptr noundef nonnull align 8 dereferenceable(20) %writer)
  ret void
}